; Function Attrs: mustprogress nounwind uwtable
define hidden noundef zeroext i1 @_ZN18XBarrierSetNMethod21nmethod_entry_barrierEP7nmethod(ptr noundef nonnull align 8 dereferenceable(12) %0, ptr noundef %1) unnamed_addr #0 align 2 {
  %3 = tail call noundef zeroext i1 @_ZN17BarrierSetNMethod8is_armedEP7nmethod(ptr noundef nonnull align 8 dereferenceable(12) %0, ptr noundef %1) #8
  br i1 %3, label %4, label %_ZN7XLockerI14XReentrantLockED2Ev.exit

4:                                                ; preds = %2
  %5 = tail call noundef ptr @_ZN8XNMethod16lock_for_nmethodEP7nmethod(ptr noundef %1) #8
  %.not.i = icmp eq ptr %5, null
  br i1 %.not.i, label %_ZN7XLockerI14XReentrantLockEC2EPS0_.exit, label %6

6:                                                ; preds = %4
  %7 = tail call align 8 ptr @llvm.threadlocal.address.p0(ptr align 8 @_ZN6Thread12_thr_currentE)
  %8 = load ptr, ptr %7, align 8
  %9 = getelementptr inbounds i8, ptr %5, i64 40
  %10 = load volatile ptr, ptr %9, align 8
  %.not.i.i = icmp eq ptr %10, %8
  br i1 %.not.i.i, label %_ZN14XReentrantLock4lockEv.exit.i, label %11

11:                                               ; preds = %6
  %12 = tail call i32 @pthread_mutex_lock(ptr noundef nonnull %5) #8
  store volatile ptr %8, ptr %9, align 8
  br label %_ZN14XReentrantLock4lockEv.exit.i

_ZN14XReentrantLock4lockEv.exit.i:                ; preds = %11, %6
  %13 = getelementptr inbounds i8, ptr %5, i64 48
  %14 = load i64, ptr %13, align 8
  %15 = add i64 %14, 1
  store i64 %15, ptr %13, align 8
  br label %_ZN7XLockerI14XReentrantLockEC2EPS0_.exit

_ZN7XLockerI14XReentrantLockEC2EPS0_.exit:        ; preds = %4, %_ZN14XReentrantLock4lockEv.exit.i
  %16 = load volatile ptr, ptr getelementptr inbounds (i8, ptr @_ZN16LogTagSetMappingILN6LogTag4typeE94ELS1_8ELS1_0ELS1_0ELS1_0ELS1_0EE7_tagsetE, i64 48), align 8
  %.not = icmp eq ptr %16, null
  br i1 %.not, label %18, label %17

17:                                               ; preds = %_ZN7XLockerI14XReentrantLockEC2EPS0_.exit
  tail call void (ptr, ...) @_ZN7LogImplILN6LogTag4typeE94ELS1_8ELS1_0ELS1_0ELS1_0ELS1_0EE5writeILN8LogLevel4typeE1EEEvPKcz(ptr noundef nonnull @.str, ptr noundef %1)
  br label %18

18:                                               ; preds = %_ZN7XLockerI14XReentrantLockEC2EPS0_.exit, %17
  %19 = tail call noundef zeroext i1 @_ZN17BarrierSetNMethod8is_armedEP7nmethod(ptr noundef nonnull align 8 dereferenceable(12) %0, ptr noundef %1) #8
  br i1 %19, label %20, label %24

20:                                               ; preds = %18
  %21 = tail call noundef zeroext i1 @_ZN7nmethod12is_unloadingEv(ptr noundef nonnull align 8 dereferenceable(214) %1) #8
  br i1 %21, label %22, label %23

22:                                               ; preds = %20
  tail call void @_ZN7nmethod18unlink_from_methodEv(ptr noundef nonnull align 8 dereferenceable(214) %1) #8
  br label %24

23:                                               ; preds = %20
  tail call void @_ZN8XNMethod20nmethod_oops_barrierEP7nmethod(ptr noundef nonnull %1) #8
  tail call void @_ZN7nmethod22mark_as_maybe_on_stackEv(ptr noundef nonnull align 8 dereferenceable(214) %1) #8
  tail call void @_ZN17BarrierSetNMethod6disarmEP7nmethod(ptr noundef nonnull align 8 dereferenceable(12) %0, ptr noundef nonnull %1) #8
  br label %24

24:                                               ; preds = %18, %23, %22
  %.0 = phi i1 [ false, %22 ], [ true, %23 ], [ true, %18 ]
  br i1 %.not.i, label %_ZN7XLockerI14XReentrantLockED2Ev.exit, label %25

25:                                               ; preds = %24
  %26 = getelementptr inbounds i8, ptr %5, i64 48
  %27 = load i64, ptr %26, align 8
  %28 = add i64 %27, -1
  store i64 %28, ptr %26, align 8
  %29 = icmp eq i64 %28, 0
  br i1 %29, label %30, label %_ZN7XLockerI14XReentrantLockED2Ev.exit

30:                                               ; preds = %25
  %31 = getelementptr inbounds i8, ptr %5, i64 40
  store volatile ptr null, ptr %31, align 8
  %32 = tail call i32 @pthread_mutex_unlock(ptr noundef nonnull %5) #8
  br label %_ZN7XLockerI14XReentrantLockED2Ev.exit

_ZN7XLockerI14XReentrantLockED2Ev.exit:           ; preds = %30, %25, %24, %2
  %.1 = phi i1 [ true, %2 ], [ %.0, %24 ], [ %.0, %25 ], [ %.0, %30 ]
  ret i1 %.1
}